target datalayout = "e-m:e-p270:32:32-p271:32:32-p272:64:64-i64:64-i128:128-f80:128-n8:16:32:64-S128"
target triple = "x86_64-unknown-linux-gnu"

%struct.gnutls_datum_t = type { ptr, i32 }
%"class.zmq::ws_listener_t" = type { %"class.zmq::stream_listener_base_t", %"class.zmq::ws_address_t", i8, ptr }
%"class.zmq::stream_listener_base_t" = type { %"class.zmq::own_t.base", %"class.zmq::io_object_t", i32, ptr, ptr, %"class.std::__cxx11::basic_string" }
%"class.zmq::own_t.base" = type <{ %"class.zmq::object_t.base", [4 x i8], %"struct.zmq::options_t", i8, [7 x i8], %"class.zmq::atomic_counter_t", i64, ptr, %"class.std::set.28", i32 }>
%"class.zmq::object_t.base" = type <{ ptr, ptr, i32 }>
%"struct.zmq::options_t" = type { i32, i32, i64, i8, [256 x i8], i32, i32, i32, i32, i32, i32, i32, i32, i8, %"struct.zmq::atomic_value_t", i32, i32, i32, i32, i32, i32, i64, i32, i32, i8, i32, i8, i8, i8, i8, i8, %"class.std::__cxx11::basic_string", %"class.std::__cxx11::basic_string", %"class.std::__cxx11::basic_string", i32, i32, i32, i32, %"class.std::vector", %"class.std::set", %"class.std::set", %"class.std::set.6", i32, i32, %"class.std::__cxx11::basic_string", %"class.std::__cxx11::basic_string", %"class.std::__cxx11::basic_string", [32 x i8], [32 x i8], [32 x i8], %"class.std::__cxx11::basic_string", %"class.std::__cxx11::basic_string", i32, i32, i8, i32, i8, i32, i8, i16, i32, i32, i32, %"class.std::__cxx11::basic_string", i8, i8, i8, i32, i32, i8, i32, %"class.std::map", i32, %"class.std::__cxx11::basic_string", %"class.std::__cxx11::basic_string", %"class.std::__cxx11::basic_string", %"class.std::__cxx11::basic_string", i8, %"class.std::vector.21", i8, %"class.std::vector.21", i8, %"class.std::vector.21", i8, i32, i8, i32, i32, i32, i32, i32, i8, i32 }
%"struct.zmq::atomic_value_t" = type { %"struct.std::atomic" }
%"struct.std::atomic" = type { %"struct.std::__atomic_base" }
%"struct.std::__atomic_base" = type { i32 }
%"class.std::vector" = type { %"struct.std::_Vector_base" }
%"struct.std::_Vector_base" = type { %"struct.std::_Vector_base<zmq::tcp_address_mask_t, std::allocator<zmq::tcp_address_mask_t>>::_Vector_impl" }
%"struct.std::_Vector_base<zmq::tcp_address_mask_t, std::allocator<zmq::tcp_address_mask_t>>::_Vector_impl" = type { %"struct.std::_Vector_base<zmq::tcp_address_mask_t, std::allocator<zmq::tcp_address_mask_t>>::_Vector_impl_data" }
%"struct.std::_Vector_base<zmq::tcp_address_mask_t, std::allocator<zmq::tcp_address_mask_t>>::_Vector_impl_data" = type { ptr, ptr, ptr }
%"class.std::set" = type { %"class.std::_Rb_tree" }
%"class.std::_Rb_tree" = type { %"struct.std::_Rb_tree<unsigned int, unsigned int, std::_Identity<unsigned int>, std::less<unsigned int>>::_Rb_tree_impl" }
%"struct.std::_Rb_tree<unsigned int, unsigned int, std::_Identity<unsigned int>, std::less<unsigned int>>::_Rb_tree_impl" = type { %"struct.std::_Rb_tree_key_compare", %"struct.std::_Rb_tree_header" }
%"struct.std::_Rb_tree_key_compare" = type { %"struct.std::less" }
%"struct.std::less" = type { i8 }
%"struct.std::_Rb_tree_header" = type { %"struct.std::_Rb_tree_node_base", i64 }
%"struct.std::_Rb_tree_node_base" = type { i32, ptr, ptr, ptr }
%"class.std::set.6" = type { %"class.std::_Rb_tree.7" }
%"class.std::_Rb_tree.7" = type { %"struct.std::_Rb_tree<int, int, std::_Identity<int>, std::less<int>>::_Rb_tree_impl" }
%"struct.std::_Rb_tree<int, int, std::_Identity<int>, std::less<int>>::_Rb_tree_impl" = type { %"struct.std::_Rb_tree_key_compare.11", %"struct.std::_Rb_tree_header" }
%"struct.std::_Rb_tree_key_compare.11" = type { %"struct.std::less.12" }
%"struct.std::less.12" = type { i8 }
%"class.std::map" = type { %"class.std::_Rb_tree.14" }
%"class.std::_Rb_tree.14" = type { %"struct.std::_Rb_tree<std::__cxx11::basic_string<char>, std::pair<const std::__cxx11::basic_string<char>, std::__cxx11::basic_string<char>>, std::_Select1st<std::pair<const std::__cxx11::basic_string<char>, std::__cxx11::basic_string<char>>>, std::less<std::__cxx11::basic_string<char>>>::_Rb_tree_impl" }
%"struct.std::_Rb_tree<std::__cxx11::basic_string<char>, std::pair<const std::__cxx11::basic_string<char>, std::__cxx11::basic_string<char>>, std::_Select1st<std::pair<const std::__cxx11::basic_string<char>, std::__cxx11::basic_string<char>>>, std::less<std::__cxx11::basic_string<char>>>::_Rb_tree_impl" = type { %"struct.std::_Rb_tree_key_compare.18", %"struct.std::_Rb_tree_header" }
%"struct.std::_Rb_tree_key_compare.18" = type { %"struct.std::less.19" }
%"struct.std::less.19" = type { i8 }
%"class.std::vector.21" = type { %"struct.std::_Vector_base.22" }
%"struct.std::_Vector_base.22" = type { %"struct.std::_Vector_base<unsigned char, std::allocator<unsigned char>>::_Vector_impl" }
%"struct.std::_Vector_base<unsigned char, std::allocator<unsigned char>>::_Vector_impl" = type { %"struct.std::_Vector_base<unsigned char, std::allocator<unsigned char>>::_Vector_impl_data" }
%"struct.std::_Vector_base<unsigned char, std::allocator<unsigned char>>::_Vector_impl_data" = type { ptr, ptr, ptr }
%"class.zmq::atomic_counter_t" = type { %"struct.std::atomic.26", [4 x i8] }
%"struct.std::atomic.26" = type { %"struct.std::__atomic_base.27" }
%"struct.std::__atomic_base.27" = type { i32 }
%"class.std::set.28" = type { %"class.std::_Rb_tree.29" }
%"class.std::_Rb_tree.29" = type { %"struct.std::_Rb_tree<zmq::own_t *, zmq::own_t *, std::_Identity<zmq::own_t *>, std::less<zmq::own_t *>>::_Rb_tree_impl" }
%"struct.std::_Rb_tree<zmq::own_t *, zmq::own_t *, std::_Identity<zmq::own_t *>, std::less<zmq::own_t *>>::_Rb_tree_impl" = type { %"struct.std::_Rb_tree_key_compare.33", %"struct.std::_Rb_tree_header" }
%"struct.std::_Rb_tree_key_compare.33" = type { %"struct.std::less.34" }
%"struct.std::less.34" = type { i8 }
%"class.zmq::io_object_t" = type { %"struct.zmq::i_poll_events", ptr }
%"struct.zmq::i_poll_events" = type { ptr }
%"class.std::__cxx11::basic_string" = type { %"struct.std::__cxx11::basic_string<char>::_Alloc_hider", i64, %union.anon }
%"struct.std::__cxx11::basic_string<char>::_Alloc_hider" = type { ptr }
%union.anon = type { i64, [8 x i8] }
%"class.zmq::ws_address_t" = type { %"union.zmq::ip_addr_t", %"class.std::__cxx11::basic_string", %"class.std::__cxx11::basic_string" }
%"union.zmq::ip_addr_t" = type { %struct.sockaddr_in6 }
%struct.sockaddr_in6 = type { i16, i16, i32, %struct.in6_addr, i32 }
%struct.in6_addr = type { %union.anon.36 }
%union.anon.36 = type { [4 x i32] }

@stderr = external global ptr, align 8
@.str = private unnamed_addr constant [30 x i8] c"Assertion failed: %s (%s:%d)\0A\00", align 1
@.str.1 = private unnamed_addr constant [23 x i8] c"rc == GNUTLS_E_SUCCESS\00", align 1
@.str.2 = private unnamed_addr constant [111 x i8] c"generated/home/dtcxzyw/WorkSpace/Projects/compilers/llvm-opt-benchmark/bench/libzmq/libzmq/src/ws_listener.cpp\00", align 1

; Function Attrs: mustprogress nounwind uwtable
define linkonce_odr void @_ZN3zmq12ws_address_tD2Ev(ptr noundef nonnull align 8 dereferenceable(96) %this) unnamed_addr #3 comdat align 2 {
entry:
  %this.addr = alloca ptr, align 8
  store ptr %this, ptr %this.addr, align 8
  %this1 = load ptr, ptr %this.addr, align 8
  %_path = getelementptr inbounds %"class.zmq::ws_address_t", ptr %this1, i32 0, i32 2
  call void @_ZNSt7__cxx1112basic_stringIcSt11char_traitsIcESaIcEED1Ev(ptr noundef nonnull align 8 dereferenceable(32) %_path) #12
  %_host = getelementptr inbounds %"class.zmq::ws_address_t", ptr %this1, i32 0, i32 1
  call void @_ZNSt7__cxx1112basic_stringIcSt11char_traitsIcESaIcEED1Ev(ptr noundef nonnull align 8 dereferenceable(32) %_host) #12
  ret void
}

; Function Attrs: mustprogress uwtable
define void @_ZN3zmq13ws_listener_tC2EPNS_11io_thread_tEPNS_13socket_base_tERKNS_9options_tEb(ptr noundef nonnull align 8 dereferenceable(1632) %this, ptr noundef %io_thread_, ptr noundef %socket_, ptr noundef nonnull align 8 dereferenceable(1336) %options_, i1 noundef zeroext %wss_) unnamed_addr #0 align 2 personality ptr @__gxx_personality_v0 {
entry:
  %this.addr = alloca ptr, align 8
  %io_thread_.addr = alloca ptr, align 8
  %socket_.addr = alloca ptr, align 8
  %options_.addr = alloca ptr, align 8
  %wss_.addr = alloca i8, align 1
  %exn.slot = alloca ptr, align 8
  %ehselector.slot = alloca i32, align 4
  %rc = alloca i32, align 4
  %cert = alloca %struct.gnutls_datum_t, align 8
  %key = alloca %struct.gnutls_datum_t, align 8
  store ptr %this, ptr %this.addr, align 8
  store ptr %io_thread_, ptr %io_thread_.addr, align 8
  store ptr %socket_, ptr %socket_.addr, align 8
  store ptr %options_, ptr %options_.addr, align 8
  %frombool = zext i1 %wss_ to i8
  store i8 %frombool, ptr %wss_.addr, align 1
  %this1 = load ptr, ptr %this.addr, align 8
  %0 = load ptr, ptr %io_thread_.addr, align 8
  %1 = load ptr, ptr %socket_.addr, align 8
  %2 = load ptr, ptr %options_.addr, align 8
  call void @_ZN3zmq22stream_listener_base_tC2EPNS_11io_thread_tEPNS_13socket_base_tERKNS_9options_tE(ptr noundef nonnull align 8 dereferenceable(1520) %this1, ptr noundef %0, ptr noundef %1, ptr noundef nonnull align 8 dereferenceable(1336) %2)
  store ptr getelementptr inbounds ({ [30 x ptr], [7 x ptr] }, ptr @_ZTVN3zmq13ws_listener_tE, i32 0, i32 0, i32 2), ptr %this1, align 8
  %add.ptr = getelementptr inbounds i8, ptr %this1, i64 1448
  store ptr getelementptr inbounds ({ [30 x ptr], [7 x ptr] }, ptr @_ZTVN3zmq13ws_listener_tE, i32 0, i32 1, i32 2), ptr %add.ptr, align 8
  %_address = getelementptr inbounds %"class.zmq::ws_listener_t", ptr %this1, i32 0, i32 1
  invoke void @_ZN3zmq12ws_address_tC1Ev(ptr noundef nonnull align 8 dereferenceable(96) %_address)
          to label %invoke.cont unwind label %lpad

invoke.cont:                                      ; preds = %entry
  %_wss = getelementptr inbounds %"class.zmq::ws_listener_t", ptr %this1, i32 0, i32 2
  %3 = load i8, ptr %wss_.addr, align 1
  %tobool = trunc i8 %3 to i1
  %frombool2 = zext i1 %tobool to i8
  store i8 %frombool2, ptr %_wss, align 8
  %_wss3 = getelementptr inbounds %"class.zmq::ws_listener_t", ptr %this1, i32 0, i32 2
  %4 = load i8, ptr %_wss3, align 8
  %tobool4 = trunc i8 %4 to i1
  br i1 %tobool4, label %if.then, label %if.end38

if.then:                                          ; preds = %invoke.cont
  %_tls_cred = getelementptr inbounds %"class.zmq::ws_listener_t", ptr %this1, i32 0, i32 3
  %call = invoke i32 @gnutls_certificate_allocate_credentials(ptr noundef %_tls_cred)
          to label %invoke.cont6 unwind label %lpad5

invoke.cont6:                                     ; preds = %if.then
  store i32 %call, ptr %rc, align 4
  br label %do.body

do.body:                                          ; preds = %invoke.cont6
  %5 = load i32, ptr %rc, align 4
  %cmp = icmp eq i32 %5, 0
  %lnot = xor i1 %cmp, true
  br i1 %lnot, label %if.then7, label %if.end

if.then7:                                         ; preds = %do.body
  %6 = load ptr, ptr @stderr, align 8
  %call9 = invoke i32 (ptr, ptr, ...) @fprintf(ptr noundef %6, ptr noundef @.str, ptr noundef @.str.1, ptr noundef @.str.2, i32 noundef 51)
          to label %invoke.cont8 unwind label %lpad5

invoke.cont8:                                     ; preds = %if.then7
  %7 = load ptr, ptr @stderr, align 8
  %call11 = invoke i32 @fflush(ptr noundef %7)
          to label %invoke.cont10 unwind label %lpad5

invoke.cont10:                                    ; preds = %invoke.cont8
  invoke void @_ZN3zmq9zmq_abortEPKc(ptr noundef @.str.1)
          to label %invoke.cont12 unwind label %lpad5

invoke.cont12:                                    ; preds = %invoke.cont10
  br label %if.end

lpad:                                             ; preds = %entry
  %8 = landingpad { ptr, i32 }
          cleanup
  %9 = extractvalue { ptr, i32 } %8, 0
  store ptr %9, ptr %exn.slot, align 8
  %10 = extractvalue { ptr, i32 } %8, 1
  store i32 %10, ptr %ehselector.slot, align 4
  br label %ehcleanup

lpad5:                                            ; preds = %invoke.cont32, %invoke.cont30, %if.then29, %do.end, %invoke.cont10, %invoke.cont8, %if.then7, %if.then
  %11 = landingpad { ptr, i32 }
          cleanup
  %12 = extractvalue { ptr, i32 } %11, 0
  store ptr %12, ptr %exn.slot, align 8
  %13 = extractvalue { ptr, i32 } %11, 1
  store i32 %13, ptr %ehselector.slot, align 4
  call void @_ZN3zmq12ws_address_tD2Ev(ptr noundef nonnull align 8 dereferenceable(96) %_address) #12
  br label %ehcleanup

if.end:                                           ; preds = %invoke.cont12, %do.body
  br label %do.cond

do.cond:                                          ; preds = %if.end
  br label %do.end

do.end:                                           ; preds = %do.cond
  %data = getelementptr inbounds %struct.gnutls_datum_t, ptr %cert, i32 0, i32 0
  %14 = load ptr, ptr %options_.addr, align 8
  %wss_cert_pem = getelementptr inbounds %"struct.zmq::options_t", ptr %14, i32 0, i32 74
  %call13 = call noundef ptr @_ZNKSt7__cxx1112basic_stringIcSt11char_traitsIcESaIcEE5c_strEv(ptr noundef nonnull align 8 dereferenceable(32) %wss_cert_pem) #12
  store ptr %call13, ptr %data, align 8
  %size = getelementptr inbounds %struct.gnutls_datum_t, ptr %cert, i32 0, i32 1
  %15 = load ptr, ptr %options_.addr, align 8
  %wss_cert_pem14 = getelementptr inbounds %"struct.zmq::options_t", ptr %15, i32 0, i32 74
  %call15 = call noundef i64 @_ZNKSt7__cxx1112basic_stringIcSt11char_traitsIcESaIcEE6lengthEv(ptr noundef nonnull align 8 dereferenceable(32) %wss_cert_pem14) #12
  %conv = trunc i64 %call15 to i32
  store i32 %conv, ptr %size, align 8
  %data16 = getelementptr inbounds %struct.gnutls_datum_t, ptr %key, i32 0, i32 0
  %16 = load ptr, ptr %options_.addr, align 8
  %wss_key_pem = getelementptr inbounds %"struct.zmq::options_t", ptr %16, i32 0, i32 73
  %call17 = call noundef ptr @_ZNKSt7__cxx1112basic_stringIcSt11char_traitsIcESaIcEE5c_strEv(ptr noundef nonnull align 8 dereferenceable(32) %wss_key_pem) #12
  store ptr %call17, ptr %data16, align 8
  %size18 = getelementptr inbounds %struct.gnutls_datum_t, ptr %key, i32 0, i32 1
  %17 = load ptr, ptr %options_.addr, align 8
  %wss_key_pem19 = getelementptr inbounds %"struct.zmq::options_t", ptr %17, i32 0, i32 73
  %call20 = call noundef i64 @_ZNKSt7__cxx1112basic_stringIcSt11char_traitsIcESaIcEE6lengthEv(ptr noundef nonnull align 8 dereferenceable(32) %wss_key_pem19) #12
  %conv21 = trunc i64 %call20 to i32
  store i32 %conv21, ptr %size18, align 8
  %_tls_cred22 = getelementptr inbounds %"class.zmq::ws_listener_t", ptr %this1, i32 0, i32 3
  %18 = load ptr, ptr %_tls_cred22, align 8
  %call24 = invoke i32 @gnutls_certificate_set_x509_key_mem(ptr noundef %18, ptr noundef %cert, ptr noundef %key, i32 noundef 1)
          to label %invoke.cont23 unwind label %lpad5

invoke.cont23:                                    ; preds = %do.end
  store i32 %call24, ptr %rc, align 4
  br label %do.body25

do.body25:                                        ; preds = %invoke.cont23
  %19 = load i32, ptr %rc, align 4
  %cmp26 = icmp eq i32 %19, 0
  %lnot27 = xor i1 %cmp26, true
  br i1 %lnot27, label %if.then29, label %if.end35

if.then29:                                        ; preds = %do.body25
  %20 = load ptr, ptr @stderr, align 8
  %call31 = invoke i32 (ptr, ptr, ...) @fprintf(ptr noundef %20, ptr noundef @.str, ptr noundef @.str.1, ptr noundef @.str.2, i32 noundef 59)
          to label %invoke.cont30 unwind label %lpad5

invoke.cont30:                                    ; preds = %if.then29
  %21 = load ptr, ptr @stderr, align 8
  %call33 = invoke i32 @fflush(ptr noundef %21)
          to label %invoke.cont32 unwind label %lpad5

invoke.cont32:                                    ; preds = %invoke.cont30
  invoke void @_ZN3zmq9zmq_abortEPKc(ptr noundef @.str.1)
          to label %invoke.cont34 unwind label %lpad5

invoke.cont34:                                    ; preds = %invoke.cont32
  br label %if.end35

if.end35:                                         ; preds = %invoke.cont34, %do.body25
  br label %do.cond36

do.cond36:                                        ; preds = %if.end35
  br label %do.end37

do.end37:                                         ; preds = %do.cond36
  br label %if.end38

if.end38:                                         ; preds = %do.end37, %invoke.cont
  ret void

ehcleanup:                                        ; preds = %lpad5, %lpad
  call void @_ZN3zmq22stream_listener_base_tD2Ev(ptr noundef nonnull align 8 dereferenceable(1520) %this1) #12
  br label %eh.resume

eh.resume:                                        ; preds = %ehcleanup
  %exn = load ptr, ptr %exn.slot, align 8
  %sel = load i32, ptr %ehselector.slot, align 4
  %lpad.val = insertvalue { ptr, i32 } poison, ptr %exn, 0
  %lpad.val39 = insertvalue { ptr, i32 } %lpad.val, i32 %sel, 1
  resume { ptr, i32 } %lpad.val39
}