; Function Attrs: mustprogress uwtable
define void @_ZN3zmq13ws_listener_tC2EPNS_11io_thread_tEPNS_13socket_base_tERKNS_9options_tEb(ptr noundef nonnull align 8 dereferenceable(1632) %this, ptr noundef %io_thread_, ptr noundef %socket_, ptr noundef nonnull align 8 dereferenceable(1336) %options_, i1 noundef zeroext %wss_) unnamed_addr #0 align 2 personality ptr @__gxx_personality_v0 {
entry:
  %cert = alloca %struct.gnutls_datum_t, align 8
  %key = alloca %struct.gnutls_datum_t, align 8
  tail call void @_ZN3zmq22stream_listener_base_tC2EPNS_11io_thread_tEPNS_13socket_base_tERKNS_9options_tE(ptr noundef nonnull align 8 dereferenceable(1520) %this, ptr noundef %io_thread_, ptr noundef %socket_, ptr noundef nonnull align 8 dereferenceable(1336) %options_)
  store ptr getelementptr inbounds ({ [30 x ptr], [7 x ptr] }, ptr @_ZTVN3zmq13ws_listener_tE, i64 0, i32 0, i64 2), ptr %this, align 8
  %add.ptr = getelementptr inbounds i8, ptr %this, i64 1448
  store ptr getelementptr inbounds ({ [30 x ptr], [7 x ptr] }, ptr @_ZTVN3zmq13ws_listener_tE, i64 0, i32 1, i64 2), ptr %add.ptr, align 8
  %_address = getelementptr inbounds i8, ptr %this, i64 1520
  invoke void @_ZN3zmq12ws_address_tC1Ev(ptr noundef nonnull align 8 dereferenceable(96) %_address)
          to label %invoke.cont unwind label %lpad

invoke.cont:                                      ; preds = %entry
  %frombool = zext i1 %wss_ to i8
  %_wss = getelementptr inbounds i8, ptr %this, i64 1616
  store i8 %frombool, ptr %_wss, align 8
  br i1 %wss_, label %if.then, label %if.end38

if.then:                                          ; preds = %invoke.cont
  %_tls_cred = getelementptr inbounds i8, ptr %this, i64 1624
  %call = invoke i32 @gnutls_certificate_allocate_credentials(ptr noundef nonnull %_tls_cred)
          to label %invoke.cont6 unwind label %lpad5

invoke.cont6:                                     ; preds = %if.then
  %cmp.not = icmp eq i32 %call, 0
  br i1 %cmp.not, label %do.end, label %if.then7

if.then7:                                         ; preds = %invoke.cont6
  %0 = load ptr, ptr @stderr, align 8
  %call9 = tail call i32 (ptr, ptr, ...) @fprintf(ptr noundef %0, ptr noundef nonnull @.str, ptr noundef nonnull @.str.1, ptr noundef nonnull @.str.2, i32 noundef 51) #13
  %1 = load ptr, ptr @stderr, align 8
  %call11 = tail call i32 @fflush(ptr noundef %1)
  invoke void @_ZN3zmq9zmq_abortEPKc(ptr noundef nonnull @.str.1)
          to label %do.end unwind label %lpad5

lpad:                                             ; preds = %entry
  %2 = landingpad { ptr, i32 }
          cleanup
  br label %ehcleanup

lpad5:                                            ; preds = %if.then29, %do.end, %if.then7, %if.then
  %3 = landingpad { ptr, i32 }
          cleanup
  %_path.i = getelementptr inbounds i8, ptr %this, i64 1584
  call void @_ZNSt7__cxx1112basic_stringIcSt11char_traitsIcESaIcEED1Ev(ptr noundef nonnull align 8 dereferenceable(32) %_path.i) #14
  %_host.i = getelementptr inbounds i8, ptr %this, i64 1552
  call void @_ZNSt7__cxx1112basic_stringIcSt11char_traitsIcESaIcEED1Ev(ptr noundef nonnull align 8 dereferenceable(32) %_host.i) #14
  br label %ehcleanup

do.end:                                           ; preds = %if.then7, %invoke.cont6
  %wss_cert_pem = getelementptr inbounds i8, ptr %options_, i64 1104
  %call13 = tail call noundef ptr @_ZNKSt7__cxx1112basic_stringIcSt11char_traitsIcESaIcEE5c_strEv(ptr noundef nonnull align 8 dereferenceable(32) %wss_cert_pem) #14
  store ptr %call13, ptr %cert, align 8
  %size = getelementptr inbounds i8, ptr %cert, i64 8
  %call15 = tail call noundef i64 @_ZNKSt7__cxx1112basic_stringIcSt11char_traitsIcESaIcEE6lengthEv(ptr noundef nonnull align 8 dereferenceable(32) %wss_cert_pem) #14
  %conv = trunc i64 %call15 to i32
  store i32 %conv, ptr %size, align 8
  %wss_key_pem = getelementptr inbounds i8, ptr %options_, i64 1072
  %call17 = tail call noundef ptr @_ZNKSt7__cxx1112basic_stringIcSt11char_traitsIcESaIcEE5c_strEv(ptr noundef nonnull align 8 dereferenceable(32) %wss_key_pem) #14
  store ptr %call17, ptr %key, align 8
  %size18 = getelementptr inbounds i8, ptr %key, i64 8
  %call20 = tail call noundef i64 @_ZNKSt7__cxx1112basic_stringIcSt11char_traitsIcESaIcEE6lengthEv(ptr noundef nonnull align 8 dereferenceable(32) %wss_key_pem) #14
  %conv21 = trunc i64 %call20 to i32
  store i32 %conv21, ptr %size18, align 8
  %4 = load ptr, ptr %_tls_cred, align 8
  %call24 = invoke i32 @gnutls_certificate_set_x509_key_mem(ptr noundef %4, ptr noundef nonnull %cert, ptr noundef nonnull %key, i32 noundef 1)
          to label %invoke.cont23 unwind label %lpad5

invoke.cont23:                                    ; preds = %do.end
  %cmp26.not = icmp eq i32 %call24, 0
  br i1 %cmp26.not, label %if.end38, label %if.then29

if.then29:                                        ; preds = %invoke.cont23
  %5 = load ptr, ptr @stderr, align 8
  %call31 = call i32 (ptr, ptr, ...) @fprintf(ptr noundef %5, ptr noundef nonnull @.str, ptr noundef nonnull @.str.1, ptr noundef nonnull @.str.2, i32 noundef 59) #13
  %6 = load ptr, ptr @stderr, align 8
  %call33 = call i32 @fflush(ptr noundef %6)
  invoke void @_ZN3zmq9zmq_abortEPKc(ptr noundef nonnull @.str.1)
          to label %if.end38 unwind label %lpad5

if.end38:                                         ; preds = %invoke.cont23, %if.then29, %invoke.cont
  ret void

ehcleanup:                                        ; preds = %lpad5, %lpad
  %.pn = phi { ptr, i32 } [ %3, %lpad5 ], [ %2, %lpad ]
  call void @_ZN3zmq22stream_listener_base_tD2Ev(ptr noundef nonnull align 8 dereferenceable(1520) %this) #14
  resume { ptr, i32 } %.pn
}